; Function Attrs: mustprogress uwtable
define void @_ZNK17IOPluginContainer23outputProjectFormatListEv(ptr dead_on_unwind noalias writable writeonly sret(%class.QStringList) align 8 captures(none) initializes((0, 8)) %0, ptr noundef nonnull align 8 dereferenceable(72) %1) local_unnamed_addr #8 align 2 personality ptr @__gxx_personality_v0 {
  %3 = alloca %class.QList, align 8
  %4 = getelementptr inbounds nuw i8, ptr %1, i64 64
  call void @_ZNK4QMapI7QStringP8IOPluginE4keysEv(ptr dead_on_unwind nonnull writable sret(%class.QList) align 8 %3, ptr noundef nonnull align 8 dereferenceable(8) %4)
  %5 = load ptr, ptr %3, align 8
  store ptr %5, ptr %0, align 8
  store ptr @_ZN9QListData11shared_nullE, ptr %3, align 8
  %6 = load atomic i32, ptr @_ZN9QListData11shared_nullE monotonic, align 8
  switch i32 %6, label %_ZN9QtPrivate8RefCount5derefEv.exit.i [
    i32 0, label %_ZN9QtPrivate8RefCount5derefEv.exit.thread2.i
    i32 -1, label %_ZN5QListI7QStringED2Ev.exit
  ]

_ZN9QtPrivate8RefCount5derefEv.exit.i:            ; preds = %2
  %7 = atomicrmw sub ptr @_ZN9QListData11shared_nullE, i32 1 seq_cst, align 4
  %.not.i = icmp eq i32 %7, 1
  br i1 %.not.i, label %_ZN9QtPrivate8RefCount5derefEv.exit._ZN9QtPrivate8RefCount5derefEv.exit.thread2_crit_edge.i, label %_ZN5QListI7QStringED2Ev.exit

_ZN9QtPrivate8RefCount5derefEv.exit._ZN9QtPrivate8RefCount5derefEv.exit.thread2_crit_edge.i: ; preds = %_ZN9QtPrivate8RefCount5derefEv.exit.i
  %.pre.i = load ptr, ptr %3, align 8
  br label %_ZN9QtPrivate8RefCount5derefEv.exit.thread2.i

_ZN9QtPrivate8RefCount5derefEv.exit.thread2.i:    ; preds = %_ZN9QtPrivate8RefCount5derefEv.exit._ZN9QtPrivate8RefCount5derefEv.exit.thread2_crit_edge.i, %2
  %8 = phi ptr [ %.pre.i, %_ZN9QtPrivate8RefCount5derefEv.exit._ZN9QtPrivate8RefCount5derefEv.exit.thread2_crit_edge.i ], [ @_ZN9QListData11shared_nullE, %2 ]
  %9 = getelementptr inbounds nuw i8, ptr %8, i64 16
  %10 = getelementptr inbounds nuw i8, ptr %8, i64 8
  %11 = load i32, ptr %10, align 8
  %12 = sext i32 %11 to i64
  %13 = getelementptr inbounds ptr, ptr %9, i64 %12
  %14 = getelementptr inbounds nuw i8, ptr %8, i64 12
  %15 = load i32, ptr %14, align 4
  %.not4.i.i.i = icmp eq i32 %11, %15
  br i1 %.not4.i.i.i, label %_ZN5QListI7QStringE13node_destructEPNS1_4NodeES3_.exit.i.i, label %.lr.ph.i.preheader.i.i

.lr.ph.i.preheader.i.i:                           ; preds = %_ZN9QtPrivate8RefCount5derefEv.exit.thread2.i
  %16 = sext i32 %15 to i64
  %17 = getelementptr inbounds ptr, ptr %9, i64 %16
  br label %.lr.ph.i.i.i

.lr.ph.i.i.i:                                     ; preds = %_ZN7QStringD2Ev.exit.i.i.i, %.lr.ph.i.preheader.i.i
  %.05.i.i.i = phi ptr [ %18, %_ZN7QStringD2Ev.exit.i.i.i ], [ %17, %.lr.ph.i.preheader.i.i ]
  %18 = getelementptr inbounds i8, ptr %.05.i.i.i, i64 -8
  %19 = load ptr, ptr %18, align 8
  %20 = load atomic i32, ptr %19 monotonic, align 4
  switch i32 %20, label %_ZN9QtPrivate8RefCount5derefEv.exit.i.i.i.i [
    i32 0, label %_ZN9QtPrivate8RefCount5derefEv.exit.thread2.i.i.i.i
    i32 -1, label %_ZN7QStringD2Ev.exit.i.i.i
  ]

_ZN9QtPrivate8RefCount5derefEv.exit.i.i.i.i:      ; preds = %.lr.ph.i.i.i
  %21 = atomicrmw sub ptr %19, i32 1 seq_cst, align 4
  %.not.i.i.i.i = icmp eq i32 %21, 1
  br i1 %.not.i.i.i.i, label %_ZN9QtPrivate8RefCount5derefEv.exit._ZN9QtPrivate8RefCount5derefEv.exit.thread2_crit_edge.i.i.i.i, label %_ZN7QStringD2Ev.exit.i.i.i

_ZN9QtPrivate8RefCount5derefEv.exit._ZN9QtPrivate8RefCount5derefEv.exit.thread2_crit_edge.i.i.i.i: ; preds = %_ZN9QtPrivate8RefCount5derefEv.exit.i.i.i.i
  %.pre.i.i.i.i = load ptr, ptr %18, align 8
  br label %_ZN9QtPrivate8RefCount5derefEv.exit.thread2.i.i.i.i

_ZN9QtPrivate8RefCount5derefEv.exit.thread2.i.i.i.i: ; preds = %_ZN9QtPrivate8RefCount5derefEv.exit._ZN9QtPrivate8RefCount5derefEv.exit.thread2_crit_edge.i.i.i.i, %.lr.ph.i.i.i
  %22 = phi ptr [ %.pre.i.i.i.i, %_ZN9QtPrivate8RefCount5derefEv.exit._ZN9QtPrivate8RefCount5derefEv.exit.thread2_crit_edge.i.i.i.i ], [ %19, %.lr.ph.i.i.i ]
  call void @_ZN10QArrayData10deallocateEPS_mm(ptr noundef %22, i64 noundef 2, i64 noundef 8) #20
  br label %_ZN7QStringD2Ev.exit.i.i.i

_ZN7QStringD2Ev.exit.i.i.i:                       ; preds = %_ZN9QtPrivate8RefCount5derefEv.exit.thread2.i.i.i.i, %_ZN9QtPrivate8RefCount5derefEv.exit.i.i.i.i, %.lr.ph.i.i.i
  %.not.i.i.i = icmp eq ptr %13, %18
  br i1 %.not.i.i.i, label %_ZN5QListI7QStringE13node_destructEPNS1_4NodeES3_.exit.i.i, label %.lr.ph.i.i.i, !llvm.loop !45

_ZN5QListI7QStringE13node_destructEPNS1_4NodeES3_.exit.i.i: ; preds = %_ZN7QStringD2Ev.exit.i.i.i, %_ZN9QtPrivate8RefCount5derefEv.exit.thread2.i
  invoke void @_ZN9QListData7disposeEPNS_4DataE(ptr noundef %8)
          to label %_ZN5QListI7QStringED2Ev.exit unwind label %23

23:                                               ; preds = %_ZN5QListI7QStringE13node_destructEPNS1_4NodeES3_.exit.i.i
  %24 = landingpad { ptr, i32 }
          catch ptr null
  %25 = extractvalue { ptr, i32 } %24, 0
  call void @__clang_call_terminate(ptr %25) #19
  unreachable

_ZN5QListI7QStringED2Ev.exit:                     ; preds = %2, %_ZN9QtPrivate8RefCount5derefEv.exit.i, %_ZN5QListI7QStringE13node_destructEPNS1_4NodeES3_.exit.i.i
  ret void
}